target datalayout = "e-m:e-p270:32:32-p271:32:32-p272:64:64-i64:64-i128:128-f80:128-n8:16:32:64-S128"
target triple = "x86_64-pc-linux-gnu"

%struct.bio_st = type { ptr, ptr, ptr, ptr, ptr, i32, i32, i32, i32, i32, ptr, ptr, ptr, %struct.CRYPTO_REF_COUNT, i64, i64, %struct.crypto_ex_data_st }
%struct.CRYPTO_REF_COUNT = type { i32 }
%struct.crypto_ex_data_st = type { ptr, ptr }
%struct.bio_buf_mem_st = type { ptr, ptr }

@.str = private unnamed_addr constant [32 x i8] c"../openssl/crypto/bio/bss_mem.c\00", align 1

; Function Attrs: nounwind uwtable
define internal i32 @mem_init(ptr noundef %0, i64 noundef %1) #0 {
  %3 = alloca i32, align 4
  %4 = alloca ptr, align 8
  %5 = alloca i64, align 8
  %6 = alloca ptr, align 8
  %7 = alloca i32, align 4
  store ptr %0, ptr %4, align 8, !tbaa !11
  store i64 %1, ptr %5, align 8, !tbaa !9
  call void @llvm.lifetime.start.p0(i64 8, ptr %6) #6
  %8 = call noalias ptr @CRYPTO_zalloc(i64 noundef 16, ptr noundef @.str, i32 noundef 111)
  store ptr %8, ptr %6, align 8, !tbaa !21
  %9 = load ptr, ptr %6, align 8, !tbaa !21
  %10 = icmp eq ptr %9, null
  br i1 %10, label %11, label %12

11:                                               ; preds = %2
  store i32 0, ptr %3, align 4
  store i32 1, ptr %7, align 4
  br label %46

12:                                               ; preds = %2
  %13 = load i64, ptr %5, align 8, !tbaa !9
  %14 = call ptr @BUF_MEM_new_ex(i64 noundef %13)
  %15 = load ptr, ptr %6, align 8, !tbaa !21
  %16 = getelementptr inbounds nuw %struct.bio_buf_mem_st, ptr %15, i32 0, i32 0
  store ptr %14, ptr %16, align 8, !tbaa !23
  %17 = icmp eq ptr %14, null
  br i1 %17, label %18, label %20

18:                                               ; preds = %12
  %19 = load ptr, ptr %6, align 8, !tbaa !21
  call void @CRYPTO_free(ptr noundef %19, ptr noundef @.str, i32 noundef 116)
  store i32 0, ptr %3, align 4
  store i32 1, ptr %7, align 4
  br label %46

20:                                               ; preds = %12
  %21 = call noalias ptr @CRYPTO_zalloc(i64 noundef 32, ptr noundef @.str, i32 noundef 119)
  %22 = load ptr, ptr %6, align 8, !tbaa !21
  %23 = getelementptr inbounds nuw %struct.bio_buf_mem_st, ptr %22, i32 0, i32 1
  store ptr %21, ptr %23, align 8, !tbaa !31
  %24 = icmp eq ptr %21, null
  br i1 %24, label %25, label %30

25:                                               ; preds = %20
  %26 = load ptr, ptr %6, align 8, !tbaa !21
  %27 = getelementptr inbounds nuw %struct.bio_buf_mem_st, ptr %26, i32 0, i32 0
  %28 = load ptr, ptr %27, align 8, !tbaa !23
  call void @BUF_MEM_free(ptr noundef %28)
  %29 = load ptr, ptr %6, align 8, !tbaa !21
  call void @CRYPTO_free(ptr noundef %29, ptr noundef @.str, i32 noundef 121)
  store i32 0, ptr %3, align 4
  store i32 1, ptr %7, align 4
  br label %46

30:                                               ; preds = %20
  %31 = load ptr, ptr %6, align 8, !tbaa !21
  %32 = getelementptr inbounds nuw %struct.bio_buf_mem_st, ptr %31, i32 0, i32 1
  %33 = load ptr, ptr %32, align 8, !tbaa !31
  %34 = load ptr, ptr %6, align 8, !tbaa !21
  %35 = getelementptr inbounds nuw %struct.bio_buf_mem_st, ptr %34, i32 0, i32 0
  %36 = load ptr, ptr %35, align 8, !tbaa !23
  call void @llvm.memcpy.p0.p0.i64(ptr align 8 %33, ptr align 8 %36, i64 32, i1 false), !tbaa.struct !32
  %37 = load ptr, ptr %4, align 8, !tbaa !11
  %38 = getelementptr inbounds nuw %struct.bio_st, ptr %37, i32 0, i32 6
  store i32 1, ptr %38, align 4, !tbaa !41
  %39 = load ptr, ptr %4, align 8, !tbaa !11
  %40 = getelementptr inbounds nuw %struct.bio_st, ptr %39, i32 0, i32 5
  store i32 1, ptr %40, align 8, !tbaa !42
  %41 = load ptr, ptr %4, align 8, !tbaa !11
  %42 = getelementptr inbounds nuw %struct.bio_st, ptr %41, i32 0, i32 9
  store i32 -1, ptr %42, align 8, !tbaa !35
  %43 = load ptr, ptr %6, align 8, !tbaa !21
  %44 = load ptr, ptr %4, align 8, !tbaa !11
  %45 = getelementptr inbounds nuw %struct.bio_st, ptr %44, i32 0, i32 10
  store ptr %43, ptr %45, align 8, !tbaa !13
  store i32 1, ptr %3, align 4
  store i32 1, ptr %7, align 4
  br label %46

46:                                               ; preds = %30, %25, %18, %11
  call void @llvm.lifetime.end.p0(i64 8, ptr %6) #6
  %47 = load i32, ptr %3, align 4
  ret i32 %47
}