; Function Attrs: nounwind uwtable
define internal fastcc range(i32 0, 2) i32 @mem_init(ptr noundef writeonly captures(none) %0, i64 noundef range(i64 0, 2) %1) unnamed_addr #1 {
  %3 = tail call noalias ptr @CRYPTO_zalloc(i64 noundef 16, ptr noundef nonnull @.str, i32 noundef 111) #7
  %4 = icmp eq ptr %3, null
  br i1 %4, label %20, label %5

5:                                                ; preds = %2
  %6 = tail call ptr @BUF_MEM_new_ex(i64 noundef %1) #7
  store ptr %6, ptr %3, align 8, !tbaa !17
  %7 = icmp eq ptr %6, null
  br i1 %7, label %8, label %9

8:                                                ; preds = %5
  tail call void @CRYPTO_free(ptr noundef nonnull %3, ptr noundef nonnull @.str, i32 noundef 116) #7
  br label %20

9:                                                ; preds = %5
  %10 = tail call noalias ptr @CRYPTO_zalloc(i64 noundef 32, ptr noundef nonnull @.str, i32 noundef 119) #7
  %11 = getelementptr inbounds nuw i8, ptr %3, i64 8
  store ptr %10, ptr %11, align 8, !tbaa !24
  %12 = icmp eq ptr %10, null
  %13 = load ptr, ptr %3, align 8, !tbaa !17
  br i1 %12, label %14, label %15

14:                                               ; preds = %9
  tail call void @BUF_MEM_free(ptr noundef %13) #7
  tail call void @CRYPTO_free(ptr noundef nonnull %3, ptr noundef nonnull @.str, i32 noundef 121) #7
  br label %20

15:                                               ; preds = %9
  tail call void @llvm.memcpy.p0.p0.i64(ptr noundef nonnull align 8 dereferenceable(32) %10, ptr noundef nonnull align 8 dereferenceable(32) %13, i64 32, i1 false), !tbaa.struct !25
  %16 = getelementptr inbounds nuw i8, ptr %0, i64 44
  store i32 1, ptr %16, align 4, !tbaa !35
  %17 = getelementptr inbounds nuw i8, ptr %0, i64 40
  store i32 1, ptr %17, align 8, !tbaa !30
  %18 = getelementptr inbounds nuw i8, ptr %0, i64 56
  store i32 -1, ptr %18, align 8, !tbaa !29
  %19 = getelementptr inbounds nuw i8, ptr %0, i64 64
  store ptr %3, ptr %19, align 8, !tbaa !3
  br label %20

20:                                               ; preds = %2, %15, %14, %8
  %.0 = phi i32 [ 0, %8 ], [ 0, %14 ], [ 1, %15 ], [ 0, %2 ]
  ret i32 %.0
}